target datalayout = "e-m:e-p270:32:32-p271:32:32-p272:64:64-i64:64-i128:128-f80:128-n8:16:32:64-S128"
target triple = "x86_64-pc-linux-gnu"

%"class.clang::SemaBase::SemaDiagnosticBuilder" = type { ptr, %"class.clang::SourceLocation", i32, ptr, i8, [7 x i8], %"class.std::optional.657", %"class.std::optional.667" }
%"class.clang::SourceLocation" = type { i32 }
%"class.std::optional.657" = type { %"struct.std::_Optional_base.658" }
%"struct.std::_Optional_base.658" = type { %"struct.std::_Optional_payload.660" }
%"struct.std::_Optional_payload.660" = type { %"struct.std::_Optional_payload.base.664", [7 x i8] }
%"struct.std::_Optional_payload.base.664" = type { %"struct.std::_Optional_payload_base.base.663" }
%"struct.std::_Optional_payload_base.base.663" = type { %"union.std::_Optional_payload_base<clang::SemaBase::ImmediateDiagBuilder>::_Storage", i8 }
%"union.std::_Optional_payload_base<clang::SemaBase::ImmediateDiagBuilder>::_Storage" = type { %"class.clang::SemaBase::ImmediateDiagBuilder" }
%"class.clang::SemaBase::ImmediateDiagBuilder" = type <{ %"class.clang::DiagnosticBuilder.base", [6 x i8], ptr, i32, [4 x i8] }>
%"class.clang::DiagnosticBuilder.base" = type <{ %"class.clang::StreamingDiagnostic", ptr, i8, i8 }>
%"class.clang::StreamingDiagnostic" = type { ptr, ptr }
%"class.std::optional.667" = type { %"struct.std::_Optional_base.668" }
%"struct.std::_Optional_base.668" = type { %"struct.std::_Optional_payload.670" }
%"struct.std::_Optional_payload.670" = type { %"struct.std::_Optional_payload_base.base.672", [3 x i8] }
%"struct.std::_Optional_payload_base.base.672" = type <{ %"union.std::_Optional_payload_base<unsigned int>::_Storage", i8 }>
%"union.std::_Optional_payload_base<unsigned int>::_Storage" = type { i32 }
%"struct.std::_Optional_payload_base.662" = type { %"union.std::_Optional_payload_base<clang::SemaBase::ImmediateDiagBuilder>::_Storage", i8, [7 x i8] }

; Function Attrs: mustprogress nounwind uwtable
define linkonce_odr hidden noundef zeroext i1 @_ZNKSt19_Optional_base_implIN5clang8SemaBase20ImmediateDiagBuilderESt14_Optional_baseIS2_Lb0ELb0EEE13_M_is_engagedEv(ptr noundef nonnull align 1 dereferenceable(1) %0) #0 comdat align 2 {
  %2 = alloca ptr, align 8
  store ptr %0, ptr %2, align 8
  %3 = load ptr, ptr %2, align 8
  %4 = getelementptr inbounds nuw %"struct.std::_Optional_base.658", ptr %3, i32 0, i32 0
  %5 = getelementptr inbounds nuw %"struct.std::_Optional_payload_base.662", ptr %4, i32 0, i32 1
  %6 = load i8, ptr %5, align 8
  %7 = trunc i8 %6 to i1
  ret i1 %7
}

; Function Attrs: mustprogress nounwind uwtable
define linkonce_odr hidden noundef zeroext i1 @_ZNKSt8optionalIN5clang8SemaBase20ImmediateDiagBuilderEE9has_valueEv(ptr noundef nonnull align 8 dereferenceable(56) %0) #0 comdat align 2 {
  %2 = alloca ptr, align 8
  store ptr %0, ptr %2, align 8
  %3 = load ptr, ptr %2, align 8
  %4 = call noundef zeroext i1 @_ZNKSt19_Optional_base_implIN5clang8SemaBase20ImmediateDiagBuilderESt14_Optional_baseIS2_Lb0ELb0EEE13_M_is_engagedEv(ptr noundef nonnull align 1 dereferenceable(1) %3) #11
  ret i1 %4
}

; Function Attrs: mustprogress nounwind uwtable
define linkonce_odr hidden noundef zeroext i1 @_ZNK5clang8SemaBase21SemaDiagnosticBuilder11isImmediateEv(ptr noundef nonnull align 8 dereferenceable(96) %0) #0 comdat align 2 {
  %2 = alloca ptr, align 8
  store ptr %0, ptr %2, align 8
  %3 = load ptr, ptr %2, align 8
  %4 = getelementptr inbounds nuw %"class.clang::SemaBase::SemaDiagnosticBuilder", ptr %3, i32 0, i32 6
  %5 = call noundef zeroext i1 @_ZNKSt8optionalIN5clang8SemaBase20ImmediateDiagBuilderEE9has_valueEv(ptr noundef nonnull align 8 dereferenceable(56) %4) #11
  ret i1 %5
}

; Function Attrs: mustprogress nounwind uwtable
define linkonce_odr hidden noundef zeroext i1 @_ZNK5clang8SemaBase21SemaDiagnosticBuildercvbEv(ptr noundef nonnull align 8 dereferenceable(96) %0) #0 comdat align 2 {
  %2 = alloca ptr, align 8
  store ptr %0, ptr %2, align 8
  %3 = load ptr, ptr %2, align 8
  %4 = call noundef zeroext i1 @_ZNK5clang8SemaBase21SemaDiagnosticBuilder11isImmediateEv(ptr noundef nonnull align 8 dereferenceable(96) %3)
  ret i1 %4
}

; Function Attrs: mustprogress nounwind uwtable
define internal noundef zeroext i1 @_ZN12_GLOBAL__N_130diagnoseConstructAppertainmentERN5clang11SemaOpenACCENS0_20OpenACCDirectiveKindENS0_14SourceLocationEb(ptr noundef nonnull align 8 dereferenceable(73) %0, i32 noundef %1, i32 %2, i1 noundef zeroext %3) #0 {
  %5 = alloca i1, align 1
  %6 = alloca %"class.clang::SourceLocation", align 4
  %7 = alloca ptr, align 8
  %8 = alloca i32, align 4
  %9 = alloca i8, align 1
  %10 = alloca %"class.clang::SemaBase::SemaDiagnosticBuilder", align 8
  %11 = alloca %"class.clang::SourceLocation", align 4
  %12 = getelementptr inbounds nuw %"class.clang::SourceLocation", ptr %6, i32 0, i32 0
  store i32 %2, ptr %12, align 4
  store ptr %0, ptr %7, align 8
  store i32 %1, ptr %8, align 4
  %13 = zext i1 %3 to i8
  store i8 %13, ptr %9, align 1
  %14 = load i32, ptr %8, align 4
  switch i32 %14, label %15 [
    i32 20, label %16
    i32 0, label %17
    i32 1, label %17
    i32 2, label %17
    i32 7, label %17
  ]

15:                                               ; preds = %4
  br label %16

16:                                               ; preds = %15, %4
  br label %27

17:                                               ; preds = %4, %4, %4, %4
  %18 = load i8, ptr %9, align 1
  %19 = trunc i8 %18 to i1
  br i1 %19, label %26, label %20

20:                                               ; preds = %17
  %21 = load ptr, ptr %7, align 8
  call void @llvm.memcpy.p0.p0.i64(ptr align 4 %11, ptr align 4 %6, i64 4, i1 false)
  %22 = getelementptr inbounds nuw %"class.clang::SourceLocation", ptr %11, i32 0, i32 0
  %23 = load i32, ptr %22, align 4
  call void @_ZN5clang8SemaBase4DiagENS_14SourceLocationEjb(ptr dead_on_unwind writable sret(%"class.clang::SemaBase::SemaDiagnosticBuilder") align 8 %10, ptr noundef nonnull align 8 dereferenceable(8) %21, i32 %23, i32 noundef 2629, i1 noundef zeroext false)
  %24 = call noundef nonnull align 8 dereferenceable(96) ptr @_ZN5clanglsINS_20OpenACCDirectiveKindEEERKNS_8SemaBase21SemaDiagnosticBuilderES5_RKT_(ptr noundef nonnull align 8 dereferenceable(96) %10, ptr noundef nonnull align 4 dereferenceable(4) %8)
  %25 = call noundef zeroext i1 @_ZNK5clang8SemaBase21SemaDiagnosticBuildercvbEv(ptr noundef nonnull align 8 dereferenceable(96) %24)
  store i1 %25, ptr %5, align 1
  call void @_ZN5clang8SemaBase21SemaDiagnosticBuilderD1Ev(ptr noundef nonnull align 8 dereferenceable(96) %10) #11
  br label %28

26:                                               ; preds = %17
  br label %27

27:                                               ; preds = %26, %16
  store i1 false, ptr %5, align 1
  br label %28

28:                                               ; preds = %27, %20
  %29 = load i1, ptr %5, align 1
  ret i1 %29
}

; Function Attrs: mustprogress nounwind uwtable
define dso_local noundef zeroext i1 @_ZN5clang11SemaOpenACC23ActOnStartDeclDirectiveENS_20OpenACCDirectiveKindENS_14SourceLocationE(ptr noundef nonnull align 8 dereferenceable(73) %0, i32 noundef %1, i32 %2) #0 align 2 {
  %4 = alloca %"class.clang::SourceLocation", align 4
  %5 = alloca ptr, align 8
  %6 = alloca i32, align 4
  %7 = alloca %"class.clang::SourceLocation", align 4
  %8 = getelementptr inbounds nuw %"class.clang::SourceLocation", ptr %4, i32 0, i32 0
  store i32 %2, ptr %8, align 4
  store ptr %0, ptr %5, align 8
  store i32 %1, ptr %6, align 4
  %9 = load ptr, ptr %5, align 8
  %10 = load i32, ptr %6, align 4
  call void @llvm.memcpy.p0.p0.i64(ptr align 4 %7, ptr align 4 %4, i64 4, i1 false)
  %11 = getelementptr inbounds nuw %"class.clang::SourceLocation", ptr %7, i32 0, i32 0
  %12 = load i32, ptr %11, align 4
  %13 = call noundef zeroext i1 @_ZN12_GLOBAL__N_130diagnoseConstructAppertainmentERN5clang11SemaOpenACCENS0_20OpenACCDirectiveKindENS0_14SourceLocationEb(ptr noundef nonnull align 8 dereferenceable(73) %9, i32 noundef %10, i32 %12, i1 noundef zeroext false)
  ret i1 %13
}