; Function Attrs: mustprogress nounwind uwtable
define dso_local noundef zeroext i1 @_ZN5clang11SemaOpenACC23ActOnStartDeclDirectiveENS_20OpenACCDirectiveKindENS_14SourceLocationE(ptr noundef nonnull align 8 dereferenceable(73) %0, i32 noundef %1, i32 %2) local_unnamed_addr #0 align 2 {
  %4 = alloca i32, align 4
  %5 = alloca %"class.clang::SemaBase::SemaDiagnosticBuilder", align 8
  call void @llvm.lifetime.start.p0(i64 4, ptr nonnull %4)
  call void @llvm.lifetime.start.p0(i64 96, ptr nonnull %5)
  store i32 %1, ptr %4, align 4
  switch i32 %1, label %_ZN12_GLOBAL__N_130diagnoseConstructAppertainmentERN5clang11SemaOpenACCENS0_20OpenACCDirectiveKindENS0_14SourceLocationEb.exit [
    i32 7, label %6
    i32 0, label %6
    i32 1, label %6
    i32 2, label %6
  ]

6:                                                ; preds = %3, %3, %3, %3
  call void @_ZN5clang8SemaBase4DiagENS_14SourceLocationEjb(ptr dead_on_unwind nonnull writable sret(%"class.clang::SemaBase::SemaDiagnosticBuilder") align 8 %5, ptr noundef nonnull align 8 dereferenceable(8) %0, i32 %2, i32 noundef 2629, i1 noundef zeroext false) #16
  %7 = call noundef nonnull align 8 dereferenceable(96) ptr @_ZN5clanglsINS_20OpenACCDirectiveKindEEERKNS_8SemaBase21SemaDiagnosticBuilderES5_RKT_(ptr noundef nonnull align 8 dereferenceable(96) %5, ptr noundef nonnull align 4 dereferenceable(4) %4)
  %8 = getelementptr inbounds i8, ptr %7, i64 80
  %9 = load i8, ptr %8, align 8
  %10 = trunc i8 %9 to i1
  call void @_ZN5clang8SemaBase21SemaDiagnosticBuilderD1Ev(ptr noundef nonnull align 8 dereferenceable(96) %5) #16
  br label %_ZN12_GLOBAL__N_130diagnoseConstructAppertainmentERN5clang11SemaOpenACCENS0_20OpenACCDirectiveKindENS0_14SourceLocationEb.exit

_ZN12_GLOBAL__N_130diagnoseConstructAppertainmentERN5clang11SemaOpenACCENS0_20OpenACCDirectiveKindENS0_14SourceLocationEb.exit: ; preds = %3, %6
  %.0.i = phi i1 [ %10, %6 ], [ false, %3 ]
  call void @llvm.lifetime.end.p0(i64 4, ptr nonnull %4)
  call void @llvm.lifetime.end.p0(i64 96, ptr nonnull %5)
  ret i1 %.0.i
}